target datalayout = "e-m:e-p270:32:32-p271:32:32-p272:64:64-i64:64-i128:128-f80:128-n8:16:32:64-S128"
target triple = "x86_64-unknown-linux-gnu"

%class.btVector3 = type { [4 x float] }
%struct.btMultibodyLink = type { float, %class.btVector3, i32, %class.btQuaternion, %class.btVector3, %class.btVector3, %struct.btSpatialMotionVector, %struct.btSpatialMotionVector, [6 x %struct.btSpatialMotionVector], i32, i32, %class.btQuaternion, %class.btVector3, %class.btQuaternion, %class.btVector3, %class.btVector3, %class.btVector3, %class.btVector3, %class.btVector3, [7 x float], [7 x float], [6 x float], ptr, i32, i32, i32, i32, ptr, %class.btTransform, ptr, ptr, ptr, float, float, float, float, float, float }
%struct.btSpatialMotionVector = type { %class.btVector3, %class.btVector3 }
%class.btQuaternion = type { %class.btQuadWord }
%class.btQuadWord = type { [4 x float] }
%class.btTransform = type { %class.btMatrix3x3, %class.btVector3 }
%class.btMatrix3x3 = type { [3 x %class.btVector3] }
%class.btMultiBody = type { ptr, ptr, ptr, %class.btVector3, %class.btVector3, %class.btQuaternion, %class.btQuaternion, float, %class.btVector3, %class.btVector3, %class.btVector3, %class.btVector3, %class.btVector3, [4 x i8], %class.btAlignedObjectArray, %class.btAlignedObjectArray.0, %class.btAlignedObjectArray.0, %class.btAlignedObjectArray.0, %class.btAlignedObjectArray.4, %class.btAlignedObjectArray.8, %class.btMatrix3x3, %class.btMatrix3x3, %class.btMatrix3x3, %class.btMatrix3x3, i8, i8, i8, i8, i8, float, float, float, ptr, i32, i32, i32, float, float, i8, float, float, i8, i8, i32, i32, i8, i8, i8, i8 }
%class.btAlignedObjectArray = type <{ %class.btAlignedAllocator, [3 x i8], i32, i32, [4 x i8], ptr, i8, [7 x i8] }>
%class.btAlignedAllocator = type { i8 }
%class.btAlignedObjectArray.0 = type <{ %class.btAlignedAllocator.1, [3 x i8], i32, i32, [4 x i8], ptr, i8, [7 x i8] }>
%class.btAlignedAllocator.1 = type { i8 }
%class.btAlignedObjectArray.4 = type <{ %class.btAlignedAllocator.5, [3 x i8], i32, i32, [4 x i8], ptr, i8, [7 x i8] }>
%class.btAlignedAllocator.5 = type { i8 }
%class.btAlignedObjectArray.8 = type <{ %class.btAlignedAllocator.9, [3 x i8], i32, i32, [4 x i8], ptr, i8, [7 x i8] }>
%class.btAlignedAllocator.9 = type { i8 }
%class.btCollisionObject = type <{ ptr, %class.btTransform, %class.btTransform, %class.btVector3, %class.btVector3, %class.btVector3, i32, float, ptr, ptr, ptr, ptr, i32, i32, i32, i32, i32, float, float, float, float, float, float, float, i32, [4 x i8], ptr, i32, i32, i32, float, float, float, i32, [4 x i8], %class.btAlignedObjectArray.12, i32, %class.btVector3, [4 x i8] }>
%class.btAlignedObjectArray.12 = type <{ %class.btAlignedAllocator.13, [3 x i8], i32, i32, [4 x i8], ptr, i8, [7 x i8] }>
%class.btAlignedAllocator.13 = type { i8 }

; Function Attrs: mustprogress nounwind uwtable
define linkonce_odr dso_local noundef zeroext i1 @_ZNK17btCollisionObject25isStaticOrKinematicObjectEv(ptr noundef nonnull align 8 dereferenceable(372) %this) #1 comdat align 2 {
entry:
  %this.addr = alloca ptr, align 8
  store ptr %this, ptr %this.addr, align 8
  %this1 = load ptr, ptr %this.addr, align 8
  %m_collisionFlags = getelementptr inbounds %class.btCollisionObject, ptr %this1, i32 0, i32 12
  %0 = load i32, ptr %m_collisionFlags, align 8
  %and = and i32 %0, 3
  %cmp = icmp ne i32 %and, 0
  ret i1 %cmp
}

; Function Attrs: mustprogress nounwind uwtable
define linkonce_odr dso_local noundef ptr @_ZNK11btMultiBody15getBaseColliderEv(ptr noundef nonnull align 8 dereferenceable(640) %this) #1 comdat align 2 {
entry:
  %this.addr = alloca ptr, align 8
  store ptr %this, ptr %this.addr, align 8
  %this1 = load ptr, ptr %this.addr, align 8
  %m_baseCollider = getelementptr inbounds %class.btMultiBody, ptr %this1, i32 0, i32 1
  %0 = load ptr, ptr %m_baseCollider, align 8
  ret ptr %0
}

; Function Attrs: mustprogress nounwind uwtable
define linkonce_odr dso_local noundef zeroext i1 @_ZNK23btMultiBodyLinkCollider19isStaticOrKinematicEv(ptr noundef nonnull align 8 dereferenceable(388) %this) #1 comdat align 2 {
entry:
  %this.addr = alloca ptr, align 8
  store ptr %this, ptr %this.addr, align 8
  %this1 = load ptr, ptr %this.addr, align 8
  %call = call noundef zeroext i1 @_ZNK17btCollisionObject25isStaticOrKinematicObjectEv(ptr noundef nonnull align 8 dereferenceable(372) %this1)
  ret i1 %call
}

; Function Attrs: mustprogress nounwind uwtable
define linkonce_odr dso_local noundef nonnull align 8 dereferenceable(688) ptr @_ZNK20btAlignedObjectArrayI15btMultibodyLinkEixEi(ptr noundef nonnull align 8 dereferenceable(25) %this, i32 noundef %n) #1 comdat align 2 {
entry:
  %this.addr = alloca ptr, align 8
  %n.addr = alloca i32, align 4
  store ptr %this, ptr %this.addr, align 8
  store i32 %n, ptr %n.addr, align 4
  %this1 = load ptr, ptr %this.addr, align 8
  %m_data = getelementptr inbounds %class.btAlignedObjectArray, ptr %this1, i32 0, i32 5
  %0 = load ptr, ptr %m_data, align 8
  %1 = load i32, ptr %n.addr, align 4
  %idxprom = sext i32 %1 to i64
  %arrayidx = getelementptr inbounds %struct.btMultibodyLink, ptr %0, i64 %idxprom
  ret ptr %arrayidx
}

; Function Attrs: mustprogress uwtable
define dso_local noundef zeroext i1 @_ZNK11btMultiBody23isBaseStaticOrKinematicEv(ptr noundef nonnull align 8 dereferenceable(640) %this) #3 align 2 {
entry:
  %this.addr = alloca ptr, align 8
  store ptr %this, ptr %this.addr, align 8
  %this1 = load ptr, ptr %this.addr, align 8
  %m_fixedBase = getelementptr inbounds %class.btMultiBody, ptr %this1, i32 0, i32 25
  %0 = load i8, ptr %m_fixedBase, align 1
  %tobool = trunc i8 %0 to i1
  br i1 %tobool, label %lor.end, label %lor.rhs

lor.rhs:                                          ; preds = %entry
  %call = call noundef ptr @_ZNK11btMultiBody15getBaseColliderEv(ptr noundef nonnull align 8 dereferenceable(640) %this1)
  %tobool2 = icmp ne ptr %call, null
  br i1 %tobool2, label %land.rhs, label %land.end

land.rhs:                                         ; preds = %lor.rhs
  %call3 = call noundef ptr @_ZNK11btMultiBody15getBaseColliderEv(ptr noundef nonnull align 8 dereferenceable(640) %this1)
  %call4 = call noundef zeroext i1 @_ZNK17btCollisionObject25isStaticOrKinematicObjectEv(ptr noundef nonnull align 8 dereferenceable(372) %call3)
  br label %land.end

land.end:                                         ; preds = %land.rhs, %lor.rhs
  %1 = phi i1 [ false, %lor.rhs ], [ %call4, %land.rhs ]
  br label %lor.end

lor.end:                                          ; preds = %land.end, %entry
  %2 = phi i1 [ true, %entry ], [ %1, %land.end ]
  ret i1 %2
}

; Function Attrs: mustprogress uwtable
define dso_local noundef zeroext i1 @_ZNK11btMultiBody23isLinkStaticOrKinematicEi(ptr noundef nonnull align 8 dereferenceable(640) %this, i32 noundef %i) #3 align 2 {
entry:
  %retval = alloca i1, align 1
  %this.addr = alloca ptr, align 8
  %i.addr = alloca i32, align 4
  store ptr %this, ptr %this.addr, align 8
  store i32 %i, ptr %i.addr, align 4
  %this1 = load ptr, ptr %this.addr, align 8
  %0 = load i32, ptr %i.addr, align 4
  %cmp = icmp eq i32 %0, -1
  br i1 %cmp, label %if.then, label %if.else

if.then:                                          ; preds = %entry
  %call = call noundef zeroext i1 @_ZNK11btMultiBody23isBaseStaticOrKinematicEv(ptr noundef nonnull align 8 dereferenceable(640) %this1)
  store i1 %call, ptr %retval, align 1
  br label %return

if.else:                                          ; preds = %entry
  %m_links = getelementptr inbounds %class.btMultiBody, ptr %this1, i32 0, i32 14
  %1 = load i32, ptr %i.addr, align 4
  %call2 = call noundef nonnull align 8 dereferenceable(688) ptr @_ZNK20btAlignedObjectArrayI15btMultibodyLinkEixEi(ptr noundef nonnull align 8 dereferenceable(25) %m_links, i32 noundef %1)
  %m_collider = getelementptr inbounds %struct.btMultibodyLink, ptr %call2, i32 0, i32 22
  %2 = load ptr, ptr %m_collider, align 8
  %tobool = icmp ne ptr %2, null
  br i1 %tobool, label %if.then3, label %if.end

if.then3:                                         ; preds = %if.else
  %m_links4 = getelementptr inbounds %class.btMultiBody, ptr %this1, i32 0, i32 14
  %3 = load i32, ptr %i.addr, align 4
  %call5 = call noundef nonnull align 8 dereferenceable(688) ptr @_ZNK20btAlignedObjectArrayI15btMultibodyLinkEixEi(ptr noundef nonnull align 8 dereferenceable(25) %m_links4, i32 noundef %3)
  %m_collider6 = getelementptr inbounds %struct.btMultibodyLink, ptr %call5, i32 0, i32 22
  %4 = load ptr, ptr %m_collider6, align 8
  %call7 = call noundef zeroext i1 @_ZNK23btMultiBodyLinkCollider19isStaticOrKinematicEv(ptr noundef nonnull align 8 dereferenceable(388) %4)
  store i1 %call7, ptr %retval, align 1
  br label %return

if.end:                                           ; preds = %if.else
  br label %if.end8

if.end8:                                          ; preds = %if.end
  store i1 false, ptr %retval, align 1
  br label %return

return:                                           ; preds = %if.end8, %if.then3, %if.then
  %5 = load i1, ptr %retval, align 1
  ret i1 %5
}