; Function Attrs: mustprogress nofree norecurse nosync nounwind willreturn memory(read, inaccessiblemem: none) uwtable
define dso_local noundef zeroext i1 @_ZNK11btMultiBody23isLinkStaticOrKinematicEi(ptr nocapture noundef nonnull readonly align 8 dereferenceable(640) %this, i32 noundef %i) local_unnamed_addr #6 align 2 {
entry:
  %cmp = icmp eq i32 %i, -1
  br i1 %cmp, label %if.then, label %if.else

if.then:                                          ; preds = %entry
  %m_fixedBase.i = getelementptr inbounds i8, ptr %this, i64 561
  %0 = load i8, ptr %m_fixedBase.i, align 1
  %1 = and i8 %0, 1
  %tobool.not.i = icmp eq i8 %1, 0
  br i1 %tobool.not.i, label %lor.rhs.i, label %return

lor.rhs.i:                                        ; preds = %if.then
  %m_baseCollider.i.i = getelementptr inbounds i8, ptr %this, i64 8
  %2 = load ptr, ptr %m_baseCollider.i.i, align 8
  %tobool2.not.i = icmp eq ptr %2, null
  br i1 %tobool2.not.i, label %return, label %return.sink.split

if.else:                                          ; preds = %entry
  %m_data.i = getelementptr inbounds i8, ptr %this, i64 192
  %3 = load ptr, ptr %m_data.i, align 8
  %idxprom.i = sext i32 %i to i64
  %m_collider = getelementptr inbounds %struct.btMultibodyLink, ptr %3, i64 %idxprom.i, i32 22
  %4 = load ptr, ptr %m_collider, align 8
  %tobool.not = icmp eq ptr %4, null
  br i1 %tobool.not, label %return, label %return.sink.split

return.sink.split:                                ; preds = %if.else, %lor.rhs.i
  %.sink = phi ptr [ %2, %lor.rhs.i ], [ %4, %if.else ]
  %m_collisionFlags.i.i = getelementptr inbounds i8, ptr %.sink, i64 224
  %5 = load i32, ptr %m_collisionFlags.i.i, align 8
  %and.i.i = and i32 %5, 3
  %cmp.i.i = icmp ne i32 %and.i.i, 0
  br label %return

return:                                           ; preds = %return.sink.split, %lor.rhs.i, %if.then, %if.else
  %retval.0 = phi i1 [ false, %if.else ], [ true, %if.then ], [ false, %lor.rhs.i ], [ %cmp.i.i, %return.sink.split ]
  ret i1 %retval.0
}